; Function Attrs: nounwind uwtable
define dso_local range(i32 -9, 1) i32 @hs_serialized_database_info(ptr noundef readonly %0, i64 noundef %1, ptr noundef writeonly %2) local_unnamed_addr #0 {
  %.not = icmp eq ptr %2, null
  br i1 %.not, label %db_decode_header.exit.thread, label %4

4:                                                ; preds = %3
  store ptr null, ptr %2, align 8
  %.not.i = icmp eq ptr %0, null
  %5 = icmp ult i64 %1, 104
  %or.cond.i = or i1 %.not.i, %5
  br i1 %or.cond.i, label %db_decode_header.exit.thread, label %6

6:                                                ; preds = %4
  %7 = load i32, ptr %0, align 1
  %.not27.i = icmp eq i32 %7, -606348325
  br i1 %.not27.i, label %8, label %db_decode_header.exit.thread

8:                                                ; preds = %6
  %9 = getelementptr inbounds nuw i8, ptr %0, i64 4
  %10 = load i32, ptr %9, align 1
  %.not28.i = icmp eq i32 %10, 84148736
  br i1 %.not28.i, label %11, label %db_decode_header.exit.thread

11:                                               ; preds = %8
  %12 = getelementptr inbounds nuw i8, ptr %0, i64 8
  %13 = load i32, ptr %12, align 1
  %14 = zext i32 %13 to i64
  %15 = add nuw nsw i64 %14, 104
  %.not29.i = icmp eq i64 %1, %15
  br i1 %.not29.i, label %16, label %db_decode_header.exit.thread

16:                                               ; preds = %11
  %17 = getelementptr inbounds nuw i8, ptr %0, i64 12
  %18 = load i64, ptr %17, align 1
  %19 = getelementptr inbounds nuw i8, ptr %0, i64 44
  %20 = load i32, ptr %19, align 1
  %21 = tail call fastcc i32 @print_database_string(ptr noundef %2, i32 noundef 84148736, i64 noundef %18, i32 noundef %20)
  br label %db_decode_header.exit.thread

db_decode_header.exit.thread:                     ; preds = %16, %4, %6, %8, %11, %3
  %.0 = phi i32 [ -1, %3 ], [ %21, %16 ], [ -1, %11 ], [ -5, %8 ], [ -1, %6 ], [ -1, %4 ]
  ret i32 %.0
}